; ModuleID = '8/187.c'
source_filename = "8/187.c"
target datalayout = "e-m:e-p270:32:32-p271:32:32-p272:64:64-i64:64-f80:128-n8:16:32:64-S128"
target triple = "x86_64-pc-linux-gnu"

@.str = private unnamed_addr constant [6 x i8] c"%d %d\00", align 1
@.str.1 = private unnamed_addr constant [3 x i8] c"%d\00", align 1
@.str.2 = private unnamed_addr constant [2 x i8] c" \00", align 1

; Function Attrs: noinline nounwind uwtable
define dso_local void @main() #0 {
  %1 = alloca [2 x i32], align 4
  %2 = alloca i32, align 4
  %3 = alloca i32, align 4
  %4 = alloca i32, align 4
  %5 = alloca [2 x [100 x i32]], align 16
  %6 = alloca i32, align 4
  %7 = getelementptr inbounds [2 x i32], [2 x i32]* %1, i64 0, i64 0
  %8 = getelementptr inbounds [2 x i32], [2 x i32]* %1, i64 0, i64 1
  %9 = call i32 (i8*, ...) @__isoc99_scanf(i8* getelementptr inbounds ([6 x i8], [6 x i8]* @.str, i64 0, i64 0), i32* %7, i32* %8)
  store i32 0, i32* %4, align 4
  br label %10

10:                                               ; preds = %33, %0
  %11 = load i32, i32* %4, align 4
  %12 = icmp slt i32 %11, 2
  br i1 %12, label %13, label %36

13:                                               ; preds = %10
  store i32 0, i32* %2, align 4
  br label %14

14:                                               ; preds = %29, %13
  %15 = load i32, i32* %2, align 4
  %16 = load i32, i32* %4, align 4
  %17 = sext i32 %16 to i64
  %18 = getelementptr inbounds [2 x i32], [2 x i32]* %1, i64 0, i64 %17
  %19 = load i32, i32* %18, align 4
  %20 = icmp slt i32 %15, %19
  br i1 %20, label %21, label %32

21:                                               ; preds = %14
  %22 = load i32, i32* %4, align 4
  %23 = sext i32 %22 to i64
  %24 = getelementptr inbounds [2 x [100 x i32]], [2 x [100 x i32]]* %5, i64 0, i64 %23
  %25 = load i32, i32* %2, align 4
  %26 = sext i32 %25 to i64
  %27 = getelementptr inbounds [100 x i32], [100 x i32]* %24, i64 0, i64 %26
  %28 = call i32 (i8*, ...) @__isoc99_scanf(i8* getelementptr inbounds ([3 x i8], [3 x i8]* @.str.1, i64 0, i64 0), i32* %27)
  br label %29

29:                                               ; preds = %21
  %30 = load i32, i32* %2, align 4
  %31 = add nsw i32 %30, 1
  store i32 %31, i32* %2, align 4
  br label %14

32:                                               ; preds = %14
  br label %33

33:                                               ; preds = %32
  %34 = load i32, i32* %4, align 4
  %35 = add nsw i32 %34, 1
  store i32 %35, i32* %4, align 4
  br label %10

36:                                               ; preds = %10
  store i32 0, i32* %4, align 4
  br label %37

37:                                               ; preds = %115, %36
  %38 = load i32, i32* %4, align 4
  %39 = icmp slt i32 %38, 2
  br i1 %39, label %40, label %118

40:                                               ; preds = %37
  store i32 0, i32* %2, align 4
  br label %41

41:                                               ; preds = %111, %40
  %42 = load i32, i32* %2, align 4
  %43 = load i32, i32* %4, align 4
  %44 = sext i32 %43 to i64
  %45 = getelementptr inbounds [2 x i32], [2 x i32]* %1, i64 0, i64 %44
  %46 = load i32, i32* %45, align 4
  %47 = icmp slt i32 %42, %46
  br i1 %47, label %48, label %114

48:                                               ; preds = %41
  store i32 0, i32* %3, align 4
  br label %49

49:                                               ; preds = %107, %48
  %50 = load i32, i32* %3, align 4
  %51 = load i32, i32* %4, align 4
  %52 = sext i32 %51 to i64
  %53 = getelementptr inbounds [2 x i32], [2 x i32]* %1, i64 0, i64 %52
  %54 = load i32, i32* %53, align 4
  %55 = load i32, i32* %2, align 4
  %56 = sub nsw i32 %54, %55
  %57 = sub nsw i32 %56, 1
  %58 = icmp slt i32 %50, %57
  br i1 %58, label %59, label %110

59:                                               ; preds = %49
  %60 = load i32, i32* %4, align 4
  %61 = sext i32 %60 to i64
  %62 = getelementptr inbounds [2 x [100 x i32]], [2 x [100 x i32]]* %5, i64 0, i64 %61
  %63 = load i32, i32* %3, align 4
  %64 = sext i32 %63 to i64
  %65 = getelementptr inbounds [100 x i32], [100 x i32]* %62, i64 0, i64 %64
  %66 = load i32, i32* %65, align 4
  %67 = load i32, i32* %4, align 4
  %68 = sext i32 %67 to i64
  %69 = getelementptr inbounds [2 x [100 x i32]], [2 x [100 x i32]]* %5, i64 0, i64 %68
  %70 = load i32, i32* %3, align 4
  %71 = add nsw i32 %70, 1
  %72 = sext i32 %71 to i64
  %73 = getelementptr inbounds [100 x i32], [100 x i32]* %69, i64 0, i64 %72
  %74 = load i32, i32* %73, align 4
  %75 = icmp sgt i32 %66, %74
  br i1 %75, label %76, label %106

76:                                               ; preds = %59
  %77 = load i32, i32* %4, align 4
  %78 = sext i32 %77 to i64
  %79 = getelementptr inbounds [2 x [100 x i32]], [2 x [100 x i32]]* %5, i64 0, i64 %78
  %80 = load i32, i32* %3, align 4
  %81 = sext i32 %80 to i64
  %82 = getelementptr inbounds [100 x i32], [100 x i32]* %79, i64 0, i64 %81
  %83 = load i32, i32* %82, align 4
  store i32 %83, i32* %6, align 4
  %84 = load i32, i32* %4, align 4
  %85 = sext i32 %84 to i64
  %86 = getelementptr inbounds [2 x [100 x i32]], [2 x [100 x i32]]* %5, i64 0, i64 %85
  %87 = load i32, i32* %3, align 4
  %88 = add nsw i32 %87, 1
  %89 = sext i32 %88 to i64
  %90 = getelementptr inbounds [100 x i32], [100 x i32]* %86, i64 0, i64 %89
  %91 = load i32, i32* %90, align 4
  %92 = load i32, i32* %4, align 4
  %93 = sext i32 %92 to i64
  %94 = getelementptr inbounds [2 x [100 x i32]], [2 x [100 x i32]]* %5, i64 0, i64 %93
  %95 = load i32, i32* %3, align 4
  %96 = sext i32 %95 to i64
  %97 = getelementptr inbounds [100 x i32], [100 x i32]* %94, i64 0, i64 %96
  store i32 %91, i32* %97, align 4
  %98 = load i32, i32* %6, align 4
  %99 = load i32, i32* %4, align 4
  %100 = sext i32 %99 to i64
  %101 = getelementptr inbounds [2 x [100 x i32]], [2 x [100 x i32]]* %5, i64 0, i64 %100
  %102 = load i32, i32* %3, align 4
  %103 = add nsw i32 %102, 1
  %104 = sext i32 %103 to i64
  %105 = getelementptr inbounds [100 x i32], [100 x i32]* %101, i64 0, i64 %104
  store i32 %98, i32* %105, align 4
  br label %106

106:                                              ; preds = %76, %59
  br label %107

107:                                              ; preds = %106
  %108 = load i32, i32* %3, align 4
  %109 = add nsw i32 %108, 1
  store i32 %109, i32* %3, align 4
  br label %49

110:                                              ; preds = %49
  br label %111

111:                                              ; preds = %110
  %112 = load i32, i32* %2, align 4
  %113 = add nsw i32 %112, 1
  store i32 %113, i32* %2, align 4
  br label %41

114:                                              ; preds = %41
  br label %115

115:                                              ; preds = %114
  %116 = load i32, i32* %4, align 4
  %117 = add nsw i32 %116, 1
  store i32 %117, i32* %4, align 4
  br label %37

118:                                              ; preds = %37
  store i32 0, i32* %4, align 4
  br label %119

119:                                              ; preds = %151, %118
  %120 = load i32, i32* %4, align 4
  %121 = icmp slt i32 %120, 2
  br i1 %121, label %122, label %154

122:                                              ; preds = %119
  store i32 0, i32* %2, align 4
  br label %123

123:                                              ; preds = %147, %122
  %124 = load i32, i32* %2, align 4
  %125 = load i32, i32* %4, align 4
  %126 = sext i32 %125 to i64
  %127 = getelementptr inbounds [2 x i32], [2 x i32]* %1, i64 0, i64 %126
  %128 = load i32, i32* %127, align 4
  %129 = icmp slt i32 %124, %128
  br i1 %129, label %130, label %150

130:                                              ; preds = %123
  %131 = load i32, i32* %4, align 4
  %132 = icmp eq i32 %131, 0
  br i1 %132, label %133, label %136

133:                                              ; preds = %130
  %134 = load i32, i32* %2, align 4
  %135 = icmp eq i32 %134, 0
  br i1 %135, label %138, label %136

136:                                              ; preds = %133, %130
  %137 = call i32 (i8*, ...) @printf(i8* getelementptr inbounds ([2 x i8], [2 x i8]* @.str.2, i64 0, i64 0))
  br label %138

138:                                              ; preds = %136, %133
  %139 = load i32, i32* %4, align 4
  %140 = sext i32 %139 to i64
  %141 = getelementptr inbounds [2 x [100 x i32]], [2 x [100 x i32]]* %5, i64 0, i64 %140
  %142 = load i32, i32* %2, align 4
  %143 = sext i32 %142 to i64
  %144 = getelementptr inbounds [100 x i32], [100 x i32]* %141, i64 0, i64 %143
  %145 = load i32, i32* %144, align 4
  %146 = call i32 (i8*, ...) @printf(i8* getelementptr inbounds ([3 x i8], [3 x i8]* @.str.1, i64 0, i64 0), i32 %145)
  br label %147

147:                                              ; preds = %138
  %148 = load i32, i32* %2, align 4
  %149 = add nsw i32 %148, 1
  store i32 %149, i32* %2, align 4
  br label %123

150:                                              ; preds = %123
  br label %151

151:                                              ; preds = %150
  %152 = load i32, i32* %4, align 4
  %153 = add nsw i32 %152, 1
  store i32 %153, i32* %4, align 4
  br label %119

154:                                              ; preds = %119
  ret void
}

declare dso_local i32 @__isoc99_scanf(i8*, ...) #1

declare dso_local i32 @printf(i8*, ...) #1


!llvm.module.flags = !{!0}
!llvm.ident = !{!1}

!0 = !{i32 1, !"wchar_size", i32 4}
!1 = !{!"clang version 10.0.0-4ubuntu1 "}
